; Function Attrs: mustprogress nounwind uwtable
define internal fastcc void @_ZSt8_DestroyIPN5arrow12_GLOBAL__N_113ArrayExporterEEvT_S4_(ptr noundef %__first, ptr noundef readnone %__last) unnamed_addr #1 {
entry:
  %cmp.not.i1 = icmp eq ptr %__first, %__last
  br i1 %cmp.not.i1, label %_ZNSt12_Destroy_auxILb0EE9__destroyIPN5arrow12_GLOBAL__N_113ArrayExporterEEEvT_S6_.exit, label %for.body.i

for.body.i:                                       ; preds = %entry, %for.body.i
  %__first.addr.0.i2 = phi ptr [ %incdec.ptr.i, %for.body.i ], [ %__first, %entry ]
  tail call fastcc void @_ZSt8_DestroyIN5arrow12_GLOBAL__N_113ArrayExporterEEvPT_(ptr noundef %__first.addr.0.i2)
  %incdec.ptr.i = getelementptr inbounds i8, ptr %__first.addr.0.i2, i64 376
  %cmp.not.i = icmp eq ptr %incdec.ptr.i, %__last
  br i1 %cmp.not.i, label %_ZNSt12_Destroy_auxILb0EE9__destroyIPN5arrow12_GLOBAL__N_113ArrayExporterEEEvT_S6_.exit, label %for.body.i, !llvm.loop !94

_ZNSt12_Destroy_auxILb0EE9__destroyIPN5arrow12_GLOBAL__N_113ArrayExporterEEEvT_S6_.exit: ; preds = %for.body.i, %entry
  ret void
}